target datalayout = "e-m:e-p270:32:32-p271:32:32-p272:64:64-i64:64-i128:128-f80:128-n8:16:32:64-S128"
target triple = "x86_64-pc-linux-gnu"

%struct.slurmdb_tres_rec_t = type { i64, i32, i64, i32, ptr, ptr }

@.str = private unnamed_addr constant [3 x i8] c"fs\00", align 1
@.str.1 = private unnamed_addr constant [7 x i8] c"lustre\00", align 1
@tres_pos = internal global i32 -1, align 4

; Function Attrs: nounwind uwtable
define dso_local i32 @init() #0 {
  %1 = alloca i32, align 4
  %2 = alloca %struct.slurmdb_tres_rec_t, align 8
  %3 = alloca i32, align 4
  call void @llvm.lifetime.start.p0(i64 48, ptr %2) #9
  %4 = call zeroext i1 @slurm_running_in_slurmstepd()
  br i1 %4, label %6, label %5

5:                                                ; preds = %0
  store i32 0, ptr %1, align 4
  store i32 1, ptr %3, align 4
  br label %10

6:                                                ; preds = %0
  call void @llvm.memset.p0.i64(ptr align 8 %2, i8 0, i64 48, i1 false)
  %7 = getelementptr inbounds nuw %struct.slurmdb_tres_rec_t, ptr %2, i32 0, i32 5
  store ptr @.str, ptr %7, align 8
  %8 = getelementptr inbounds nuw %struct.slurmdb_tres_rec_t, ptr %2, i32 0, i32 4
  store ptr @.str.1, ptr %8, align 8
  %9 = call i32 @assoc_mgr_find_tres_pos(ptr noundef %2, i1 noundef zeroext false)
  store i32 %9, ptr @tres_pos, align 4
  store i32 0, ptr %1, align 4
  store i32 1, ptr %3, align 4
  br label %10

10:                                               ; preds = %6, %5
  call void @llvm.lifetime.end.p0(i64 48, ptr %2) #9
  %11 = load i32, ptr %1, align 4
  ret i32 %11
}