; Function Attrs: nounwind uwtable
define dso_local noundef i32 @init() local_unnamed_addr #0 {
  %1 = alloca %struct.slurmdb_tres_rec_t, align 8
  call void @llvm.lifetime.start.p0(i64 48, ptr nonnull %1) #11
  %2 = tail call zeroext i1 @slurm_running_in_slurmstepd() #11
  br i1 %2, label %3, label %7

3:                                                ; preds = %0
  call void @llvm.memset.p0.i64(ptr noundef nonnull align 8 dereferenceable(48) %1, i8 0, i64 32, i1 false)
  %4 = getelementptr inbounds nuw i8, ptr %1, i64 40
  store ptr @.str, ptr %4, align 8
  %5 = getelementptr inbounds nuw i8, ptr %1, i64 32
  store ptr @.str.1, ptr %5, align 8
  %6 = call i32 @assoc_mgr_find_tres_pos(ptr noundef nonnull %1, i1 noundef zeroext false) #11
  store i32 %6, ptr @tres_pos, align 4
  br label %7

7:                                                ; preds = %0, %3
  call void @llvm.lifetime.end.p0(i64 48, ptr nonnull %1) #11
  ret i32 0
}